	.file	"main.c"
	.section .rdata,"dr"
LC0:
	.ascii "Error: %s\12\0"
	.text
	.globl	_printError
	.def	_printError;	.scl	2;	.type	32;	.endef
_printError:
LFB10:
	.cfi_startproc
	pushl	%ebp
	.cfi_def_cfa_offset 8
	.cfi_offset 5, -8
	movl	%esp, %ebp
	.cfi_def_cfa_register 5
	subl	$24, %esp
	movl	8(%ebp), %eax
	movl	%eax, 4(%esp)
	movl	$LC0, (%esp)
	call	_printf
	nop
	leave
	.cfi_restore 5
	.cfi_def_cfa 4, 4
	ret
	.cfi_endproc
LFE10:
	.section .rdata,"dr"
LC1:
	.ascii "Warning: %s\12\0"
	.text
	.globl	_printWarning
	.def	_printWarning;	.scl	2;	.type	32;	.endef
_printWarning:
LFB11:
	.cfi_startproc
	pushl	%ebp
	.cfi_def_cfa_offset 8
	.cfi_offset 5, -8
	movl	%esp, %ebp
	.cfi_def_cfa_register 5
	subl	$24, %esp
	movl	8(%ebp), %eax
	movl	%eax, 4(%esp)
	movl	$LC1, (%esp)
	call	_printf
	nop
	leave
	.cfi_restore 5
	.cfi_def_cfa 4, 4
	ret
	.cfi_endproc
LFE11:
	.section .rdata,"dr"
LC2:
	.ascii "Info: %s\12\0"
	.text
	.globl	_printInfo
	.def	_printInfo;	.scl	2;	.type	32;	.endef
_printInfo:
LFB12:
	.cfi_startproc
	pushl	%ebp
	.cfi_def_cfa_offset 8
	.cfi_offset 5, -8
	movl	%esp, %ebp
	.cfi_def_cfa_register 5
	subl	$24, %esp
	movl	8(%ebp), %eax
	movl	%eax, 4(%esp)
	movl	$LC2, (%esp)
	call	_printf
	nop
	leave
	.cfi_restore 5
	.cfi_def_cfa 4, 4
	ret
	.cfi_endproc
LFE12:
	.section .rdata,"dr"
LC3:
	.ascii "Debug: %s\12\0"
	.text
	.globl	_printDebug
	.def	_printDebug;	.scl	2;	.type	32;	.endef
_printDebug:
LFB13:
	.cfi_startproc
	pushl	%ebp
	.cfi_def_cfa_offset 8
	.cfi_offset 5, -8
	movl	%esp, %ebp
	.cfi_def_cfa_register 5
	subl	$24, %esp
	movl	8(%ebp), %eax
	movl	%eax, 4(%esp)
	movl	$LC3, (%esp)
	call	_printf
	nop
	leave
	.cfi_restore 5
	.cfi_def_cfa 4, 4
	ret
	.cfi_endproc
LFE13:
	.section .rdata,"dr"
LC4:
	.ascii "Critical: %s\12\0"
	.text
	.globl	_printCritical
	.def	_printCritical;	.scl	2;	.type	32;	.endef
_printCritical:
LFB14:
	.cfi_startproc
	pushl	%ebp
	.cfi_def_cfa_offset 8
	.cfi_offset 5, -8
	movl	%esp, %ebp
	.cfi_def_cfa_register 5
	subl	$24, %esp
	movl	8(%ebp), %eax
	movl	%eax, 4(%esp)
	movl	$LC4, (%esp)
	call	_printf
	nop
	leave
	.cfi_restore 5
	.cfi_def_cfa 4, 4
	ret
	.cfi_endproc
LFE14:
	.section .rdata,"dr"
LC5:
	.ascii "Success: %s\12\0"
	.text
	.globl	_printSuccess
	.def	_printSuccess;	.scl	2;	.type	32;	.endef
_printSuccess:
LFB15:
	.cfi_startproc
	pushl	%ebp
	.cfi_def_cfa_offset 8
	.cfi_offset 5, -8
	movl	%esp, %ebp
	.cfi_def_cfa_register 5
	subl	$24, %esp
	movl	8(%ebp), %eax
	movl	%eax, 4(%esp)
	movl	$LC5, (%esp)
	call	_printf
	nop
	leave
	.cfi_restore 5
	.cfi_def_cfa 4, 4
	ret
	.cfi_endproc
LFE15:
	.def	___main;	.scl	2;	.type	32;	.endef
	.section .rdata,"dr"
LC6:
	.ascii "x is not equal to 10\0"
LC7:
	.ascii "x is less than 10\0"
	.text
	.globl	_main
	.def	_main;	.scl	2;	.type	32;	.endef
_main:
LFB16:
	.cfi_startproc
	pushl	%ebp
	.cfi_def_cfa_offset 8
	.cfi_offset 5, -8
	movl	%esp, %ebp
	.cfi_def_cfa_register 5
	andl	$-16, %esp
	subl	$32, %esp
	call	___main
	movl	$5, 28(%esp)
	cmpl	$10, 28(%esp)
	jne	L8
	movl	$LC6, (%esp)
	call	_printError
L8:
	cmpl	$9, 28(%esp)
	jg	L9
	movl	$LC7, (%esp)
	call	_printWarning
L9:
	movl	$0, %eax
	leave
	.cfi_restore 5
	.cfi_def_cfa 4, 4
	ret
	.cfi_endproc
LFE16:
	.ident	"GCC: (MinGW.org GCC-6.3.0-1) 6.3.0"
	.def	_printf;	.scl	2;	.type	32;	.endef
